target datalayout = "e-m:e-p270:32:32-p271:32:32-p272:64:64-i64:64-i128:128-f80:128-n8:16:32:64-S128"
target triple = "x86_64-pc-linux-gnu"

%struct._zend_executor_globals = type { %struct._zval_struct, %struct._zval_struct, [32 x ptr], ptr, ptr, %struct._zend_array, %struct._zend_array, ptr, i32, i32, ptr, ptr, ptr, ptr, ptr, ptr, i64, ptr, ptr, i32, i32, i64, i32, i32, i32, i8, i8, %struct.zend_atomic_bool_s, %struct.zend_atomic_bool_s, ptr, i64, ptr, ptr, %struct._zend_array, %struct._zend_array, i32, i8, %struct._zval_struct, %struct._zval_struct, %struct._zend_stack, %struct._zend_stack, %struct._zend_stack, ptr, i32, i32, i64, ptr, ptr, ptr, %struct._zend_objects_store, ptr, ptr, ptr, [3 x %struct._zend_op], ptr, i8, i8, i64, i32, i32, ptr, [16 x %struct._HashTableIterator], ptr, %union._zend_function, %struct._zend_op, %struct._zend_array, i64, %struct.zend_get_gc_buffer, ptr, ptr, ptr, i64, i8, i32, ptr, ptr, i64, %struct._zend_call_stack, i64, i64, [6 x ptr] }
%struct.zend_atomic_bool_s = type { i8 }
%struct._zval_struct = type { %union._zend_value, %union.anon, %union.anon.2 }
%union._zend_value = type { i64 }
%union.anon = type { i32 }
%union.anon.2 = type { i32 }
%struct._zend_stack = type { i32, i32, i32, ptr }
%struct._zend_objects_store = type { ptr, i32, i32, i32 }
%struct._HashTableIterator = type { ptr, i32, i32 }
%union._zend_function = type { %struct._zend_op_array }
%struct._zend_op_array = type { i8, [3 x i8], i32, ptr, ptr, ptr, i32, i32, ptr, ptr, ptr, ptr, i32, i32, i32, i32, ptr, ptr, ptr, ptr, ptr, i32, i32, ptr, ptr, ptr, i32, i32, i32, i32, ptr, ptr, [6 x ptr] }
%struct._zend_op = type { ptr, %union._znode_op, %union._znode_op, %union._znode_op, i32, i32, i8, i8, i8, i8 }
%union._znode_op = type { i32 }
%struct._zend_array = type { %struct._zend_refcounted_h, %union.anon.5, i32, %union.anon.7, i32, i32, i32, i32, i64, ptr }
%struct._zend_refcounted_h = type { i32, %union.anon.3 }
%union.anon.3 = type { i32 }
%union.anon.5 = type { i32 }
%union.anon.7 = type { ptr }
%struct.zend_get_gc_buffer = type { ptr, ptr, ptr }
%struct._zend_call_stack = type { ptr, i64 }
%struct._php_random_algo = type { i64, ptr, ptr, ptr, ptr }
%struct._zend_execute_data = type { ptr, ptr, ptr, ptr, %struct._zval_struct, ptr, ptr, ptr, ptr }
%struct._zend_object = type { %struct._zend_refcounted_h, i32, ptr, ptr, ptr, [1 x %struct._zval_struct] }
%struct._php_random_algo_with_state = type { ptr, ptr }
%struct._php_random_randomizer = type { %struct._php_random_algo_with_state, i8, %struct._zend_object }
%struct._php_random_result = type { i64, i64 }

@executor_globals = external global %struct._zend_executor_globals, align 8
@random_ce_Random_RandomException = external global ptr, align 8
@.str.5 = private unnamed_addr constant [36 x i8] c"Generated value exceeds size of int\00", align 1

; Function Attrs: nounwind uwtable
define internal ptr @php_random_randomizer_from_obj(ptr noundef %0) #0 {
  %2 = alloca ptr, align 8
  store ptr %0, ptr %2, align 8
  %3 = load ptr, ptr %2, align 8
  %4 = getelementptr inbounds i8, ptr %3, i64 -24
  ret ptr %4
}

; Function Attrs: nounwind uwtable
define hidden void @zim_Random_Randomizer_nextInt(ptr noundef %0, ptr noundef %1) #0 {
  %3 = alloca ptr, align 8
  %4 = alloca ptr, align 8
  %5 = alloca ptr, align 8
  %6 = alloca %struct._php_random_algo_with_state, align 8
  %7 = alloca %struct._php_random_result, align 8
  %8 = alloca ptr, align 8
  store ptr %0, ptr %3, align 8
  store ptr %1, ptr %4, align 8
  %9 = load ptr, ptr %3, align 8
  %10 = getelementptr inbounds %struct._zend_execute_data, ptr %9, i32 0, i32 4
  %11 = getelementptr inbounds %struct._zval_struct, ptr %10, i32 0, i32 0
  %12 = load ptr, ptr %11, align 8
  %13 = call ptr @php_random_randomizer_from_obj(ptr noundef %12)
  store ptr %13, ptr %5, align 8
  %14 = load ptr, ptr %5, align 8
  %15 = getelementptr inbounds %struct._php_random_randomizer, ptr %14, i32 0, i32 0
  call void @llvm.memcpy.p0.p0.i64(ptr align 8 %6, ptr align 8 %15, i64 16, i1 false)
  br label %16

16:                                               ; preds = %2
  %17 = load ptr, ptr %3, align 8
  %18 = getelementptr inbounds %struct._zend_execute_data, ptr %17, i32 0, i32 4
  %19 = getelementptr inbounds %struct._zval_struct, ptr %18, i32 0, i32 2
  %20 = load i32, ptr %19, align 4
  %21 = icmp ne i32 %20, 0
  %22 = xor i1 %21, true
  %23 = xor i1 %22, true
  %24 = zext i1 %23 to i32
  %25 = sext i32 %24 to i64
  %26 = icmp ne i64 %25, 0
  br i1 %26, label %27, label %28

27:                                               ; preds = %16
  call void @zend_wrong_parameters_none_error()
  br label %71

28:                                               ; preds = %16
  br label %29

29:                                               ; preds = %28
  %30 = getelementptr inbounds %struct._php_random_algo_with_state, ptr %6, i32 0, i32 0
  %31 = load ptr, ptr %30, align 8
  %32 = getelementptr inbounds %struct._php_random_algo, ptr %31, i32 0, i32 1
  %33 = load ptr, ptr %32, align 8
  %34 = getelementptr inbounds %struct._php_random_algo_with_state, ptr %6, i32 0, i32 1
  %35 = load ptr, ptr %34, align 8
  %36 = call { i64, i64 } %33(ptr noundef %35)
  %37 = getelementptr inbounds { i64, i64 }, ptr %7, i32 0, i32 0
  %38 = extractvalue { i64, i64 } %36, 0
  store i64 %38, ptr %37, align 8
  %39 = getelementptr inbounds { i64, i64 }, ptr %7, i32 0, i32 1
  %40 = extractvalue { i64, i64 } %36, 1
  store i64 %40, ptr %39, align 8
  %41 = load ptr, ptr getelementptr inbounds (%struct._zend_executor_globals, ptr @executor_globals, i32 0, i32 50), align 8
  %42 = icmp ne ptr %41, null
  br i1 %42, label %43, label %48

43:                                               ; preds = %29
  br label %44

44:                                               ; preds = %43
  %45 = load ptr, ptr getelementptr inbounds (%struct._zend_executor_globals, ptr @executor_globals, i32 0, i32 50), align 8
  %46 = icmp ne ptr %45, null
  call void @llvm.assume(i1 %46)
  br label %71

47:                                               ; No predecessors!
  br label %48

48:                                               ; preds = %47, %29
  %49 = getelementptr inbounds %struct._php_random_result, ptr %7, i32 0, i32 1
  %50 = load i64, ptr %49, align 8
  %51 = icmp ugt i64 %50, 8
  br i1 %51, label %52, label %59

52:                                               ; preds = %48
  %53 = load ptr, ptr @random_ce_Random_RandomException, align 8
  %54 = call ptr @zend_throw_exception(ptr noundef %53, ptr noundef @.str.5, i64 noundef 0)
  br label %55

55:                                               ; preds = %52
  %56 = load ptr, ptr getelementptr inbounds (%struct._zend_executor_globals, ptr @executor_globals, i32 0, i32 50), align 8
  %57 = icmp ne ptr %56, null
  call void @llvm.assume(i1 %57)
  br label %71

58:                                               ; No predecessors!
  br label %59

59:                                               ; preds = %58, %48
  br label %60

60:                                               ; preds = %59
  br label %61

61:                                               ; preds = %60
  %62 = load ptr, ptr %4, align 8
  store ptr %62, ptr %8, align 8
  %63 = getelementptr inbounds %struct._php_random_result, ptr %7, i32 0, i32 0
  %64 = load i64, ptr %63, align 8
  %65 = lshr i64 %64, 1
  %66 = load ptr, ptr %8, align 8
  %67 = getelementptr inbounds %struct._zval_struct, ptr %66, i32 0, i32 0
  store i64 %65, ptr %67, align 8
  %68 = load ptr, ptr %8, align 8
  %69 = getelementptr inbounds %struct._zval_struct, ptr %68, i32 0, i32 1
  store i32 4, ptr %69, align 8
  br label %70

70:                                               ; preds = %61
  br label %71

71:                                               ; preds = %70, %55, %44, %27
  ret void
}