; Function Attrs: nounwind uwtable
define hidden void @zim_Random_Randomizer_nextInt(ptr nocapture noundef readonly %0, ptr nocapture noundef writeonly %1) local_unnamed_addr #0 {
  %3 = getelementptr inbounds i8, ptr %0, i64 44
  %4 = load i32, ptr %3, align 4
  %.not = icmp eq i32 %4, 0
  br i1 %.not, label %6, label %5

5:                                                ; preds = %2
  tail call void @zend_wrong_parameters_none_error() #7
  br label %26

6:                                                ; preds = %2
  %7 = getelementptr inbounds i8, ptr %0, i64 32
  %8 = load ptr, ptr %7, align 8
  %9 = getelementptr inbounds i8, ptr %8, i64 -24
  %.sroa.23.0..sroa_idx = getelementptr inbounds i8, ptr %8, i64 -16
  %.sroa.23.0.copyload = load ptr, ptr %.sroa.23.0..sroa_idx, align 8
  %.sroa.02.0.copyload = load ptr, ptr %9, align 8
  %10 = getelementptr inbounds i8, ptr %.sroa.02.0.copyload, i64 8
  %11 = load ptr, ptr %10, align 8
  %12 = tail call { i64, i64 } %11(ptr noundef %.sroa.23.0.copyload) #7
  %13 = extractvalue { i64, i64 } %12, 0
  %14 = load ptr, ptr getelementptr inbounds (%struct._zend_executor_globals, ptr @executor_globals, i64 0, i32 50), align 8
  %.not8 = icmp eq ptr %14, null
  br i1 %.not8, label %15, label %26

15:                                               ; preds = %6
  %16 = extractvalue { i64, i64 } %12, 1
  %17 = icmp ugt i64 %16, 8
  br i1 %17, label %18, label %23

18:                                               ; preds = %15
  %19 = load ptr, ptr @random_ce_Random_RandomException, align 8
  %20 = tail call ptr @zend_throw_exception(ptr noundef %19, ptr noundef nonnull @.str.5, i64 noundef 0) #7
  %21 = load ptr, ptr getelementptr inbounds (%struct._zend_executor_globals, ptr @executor_globals, i64 0, i32 50), align 8
  %22 = icmp ne ptr %21, null
  tail call void @llvm.assume(i1 %22)
  br label %26

23:                                               ; preds = %15
  %24 = lshr i64 %13, 1
  store i64 %24, ptr %1, align 8
  %25 = getelementptr inbounds i8, ptr %1, i64 8
  store i32 4, ptr %25, align 8
  br label %26

26:                                               ; preds = %6, %23, %18, %5
  ret void
}